target datalayout = "e-m:e-p270:32:32-p271:32:32-p272:64:64-i64:64-i128:128-f80:128-n8:16:32:64-S128"
target triple = "x86_64-unknown-linux-gnu"

%struct.CPUArchState = type { [32 x i64], [32 x i64], [512 x i64], i64, i64, i64, i64, i64, i8, i64, i64, i64, [32 x i64], i64, %struct.float_status, i64, i64, i64, i64, i64, i64, i32, i32, i32, i32, i32, i64, i64, i64, i8, i64, i64, i64, i64, i64, i8, i8, i64, i64, i64, i64, i64, i64, i64, i64, i64, i64, i64, i64, i64, i64, i64, [64 x i8], [64 x i8], i64, i64, i64, i64, i64, i64, i64, i64, i64, i64, i64, i64, i64, i64, i64, i64, i64, [64 x i8], i64, i64, i64, i64, i64, i64, i64, i64, i64, i64, i64, i64, i64, i64, i64, i64, i64, i64, i64, i8, i8, i64, i64, i64, [32 x %struct.PMUCTRState], [32 x i64], [32 x i64], i64, i64, i64, i64, %struct.pmp_table_t, i64, i64, [2 x i64], [2 x i64], [2 x i64], [2 x ptr], [2 x ptr], [2 x ptr], i64, i8, ptr, ptr, [4 x ptr], [4 x ptr], i8, i64, i64, i64, i64, i64, i64, i64, i64, [4 x i64], [4 x i64], [4 x i64], i64, i64, i64, i64, ptr, ptr, i8, i64, i64, [8 x i8] }
%struct.float_status = type { i16, i8, i8, i8, i8, i8, i8, i8, i8, i8, i8, i8 }
%struct.PMUCTRState = type { i64, i64, i64, i64, i8, i64 }
%struct.pmp_table_t = type { [16 x %struct.pmp_entry_t], [16 x %struct.pmp_addr_t], i32 }
%struct.pmp_entry_t = type { i64, i8 }
%struct.pmp_addr_t = type { i64, i64 }

@.str = private unnamed_addr constant [29 x i8] c"../qemu/target/riscv/debug.c\00", align 1
@__func__.extract_trigger_type = private unnamed_addr constant [21 x i8] c"extract_trigger_type\00", align 1
@.str.4 = private unnamed_addr constant [49 x i8] c"start >= 0 && length > 0 && length <= 32 - start\00", align 1
@.str.5 = private unnamed_addr constant [100 x i8] c"/home/dtcxzyw/WorkSpace/Projects/compilers/llvm-opt-benchmark/bench/qemu/qemu/include/qemu/bitops.h\00", align 1
@__PRETTY_FUNCTION__.extract32 = private unnamed_addr constant [39 x i8] c"uint32_t extract32(uint32_t, int, int)\00", align 1
@.str.6 = private unnamed_addr constant [49 x i8] c"start >= 0 && length > 0 && length <= 64 - start\00", align 1
@__PRETTY_FUNCTION__.extract64 = private unnamed_addr constant [39 x i8] c"uint64_t extract64(uint64_t, int, int)\00", align 1

; Function Attrs: nounwind sspstrong uwtable
define internal i64 @extract64(i64 noundef %value, i32 noundef %start, i32 noundef %length) #0 {
entry:
  %value.addr = alloca i64, align 8
  %start.addr = alloca i32, align 4
  %length.addr = alloca i32, align 4
  store i64 %value, ptr %value.addr, align 8
  store i32 %start, ptr %start.addr, align 4
  store i32 %length, ptr %length.addr, align 4
  %0 = load i32, ptr %start.addr, align 4
  %cmp = icmp sge i32 %0, 0
  br i1 %cmp, label %land.lhs.true, label %if.else

land.lhs.true:                                    ; preds = %entry
  %1 = load i32, ptr %length.addr, align 4
  %cmp1 = icmp sgt i32 %1, 0
  br i1 %cmp1, label %land.lhs.true2, label %if.else

land.lhs.true2:                                   ; preds = %land.lhs.true
  %2 = load i32, ptr %length.addr, align 4
  %3 = load i32, ptr %start.addr, align 4
  %sub = sub i32 64, %3
  %cmp3 = icmp sle i32 %2, %sub
  br i1 %cmp3, label %if.then, label %if.else

if.then:                                          ; preds = %land.lhs.true2
  br label %if.end

if.else:                                          ; preds = %land.lhs.true2, %land.lhs.true, %entry
  call void @__assert_fail(ptr noundef @.str.6, ptr noundef @.str.5, i32 noundef 395, ptr noundef @__PRETTY_FUNCTION__.extract64) #6
  unreachable

if.end:                                           ; preds = %if.then
  %4 = load i64, ptr %value.addr, align 8
  %5 = load i32, ptr %start.addr, align 4
  %sh_prom = zext i32 %5 to i64
  %shr = lshr i64 %4, %sh_prom
  %6 = load i32, ptr %length.addr, align 4
  %sub4 = sub i32 64, %6
  %sh_prom5 = zext i32 %sub4 to i64
  %shr6 = lshr i64 -1, %sh_prom5
  %and = and i64 %shr, %shr6
  ret i64 %and
}

; Function Attrs: nounwind sspstrong uwtable
define internal i32 @extract32(i32 noundef %value, i32 noundef %start, i32 noundef %length) #0 {
entry:
  %value.addr = alloca i32, align 4
  %start.addr = alloca i32, align 4
  %length.addr = alloca i32, align 4
  store i32 %value, ptr %value.addr, align 4
  store i32 %start, ptr %start.addr, align 4
  store i32 %length, ptr %length.addr, align 4
  %0 = load i32, ptr %start.addr, align 4
  %cmp = icmp sge i32 %0, 0
  br i1 %cmp, label %land.lhs.true, label %if.else

land.lhs.true:                                    ; preds = %entry
  %1 = load i32, ptr %length.addr, align 4
  %cmp1 = icmp sgt i32 %1, 0
  br i1 %cmp1, label %land.lhs.true2, label %if.else

land.lhs.true2:                                   ; preds = %land.lhs.true
  %2 = load i32, ptr %length.addr, align 4
  %3 = load i32, ptr %start.addr, align 4
  %sub = sub i32 32, %3
  %cmp3 = icmp sle i32 %2, %sub
  br i1 %cmp3, label %if.then, label %if.else

if.then:                                          ; preds = %land.lhs.true2
  br label %if.end

if.else:                                          ; preds = %land.lhs.true2, %land.lhs.true, %entry
  call void @__assert_fail(ptr noundef @.str.4, ptr noundef @.str.5, i32 noundef 338, ptr noundef @__PRETTY_FUNCTION__.extract32) #6
  unreachable

if.end:                                           ; preds = %if.then
  %4 = load i32, ptr %value.addr, align 4
  %5 = load i32, ptr %start.addr, align 4
  %shr = lshr i32 %4, %5
  %6 = load i32, ptr %length.addr, align 4
  %sub4 = sub i32 32, %6
  %shr5 = lshr i32 -1, %sub4
  %and = and i32 %shr, %shr5
  ret i32 %and
}

; Function Attrs: nounwind sspstrong uwtable
define internal i32 @riscv_cpu_mxl(ptr noundef %env) #0 {
entry:
  %env.addr = alloca ptr, align 8
  store ptr %env, ptr %env.addr, align 8
  %0 = load ptr, ptr %env.addr, align 8
  %misa_mxl = getelementptr inbounds %struct.CPUArchState, ptr %0, i32 0, i32 21
  %1 = load i32, ptr %misa_mxl, align 16
  ret i32 %1
}

; Function Attrs: nounwind sspstrong uwtable
define internal i64 @extract_trigger_type(ptr noundef %env, i64 noundef %tdata1) #0 {
entry:
  %retval = alloca i64, align 8
  %env.addr = alloca ptr, align 8
  %tdata1.addr = alloca i64, align 8
  store ptr %env, ptr %env.addr, align 8
  store i64 %tdata1, ptr %tdata1.addr, align 8
  %0 = load ptr, ptr %env.addr, align 8
  %call = call i32 @riscv_cpu_mxl(ptr noundef %0)
  switch i32 %call, label %sw.default [
    i32 1, label %sw.bb
    i32 2, label %sw.bb3
    i32 3, label %sw.bb3
  ]

sw.bb:                                            ; preds = %entry
  %1 = load i64, ptr %tdata1.addr, align 8
  %conv = trunc i64 %1 to i32
  %call1 = call i32 @extract32(i32 noundef %conv, i32 noundef 28, i32 noundef 4)
  %conv2 = zext i32 %call1 to i64
  store i64 %conv2, ptr %retval, align 8
  br label %sw.epilog

sw.bb3:                                           ; preds = %entry, %entry
  %2 = load i64, ptr %tdata1.addr, align 8
  %call4 = call i64 @extract64(i64 noundef %2, i32 noundef 60, i32 noundef 4)
  store i64 %call4, ptr %retval, align 8
  br label %sw.epilog

sw.default:                                       ; preds = %entry
  br label %do.body

do.body:                                          ; preds = %sw.default
  call void @g_assertion_message_expr(ptr noundef null, ptr noundef @.str, i32 noundef 87, ptr noundef @__func__.extract_trigger_type, ptr noundef null) #5
  unreachable

do.end:                                           ; No predecessors!
  br label %sw.epilog

sw.epilog:                                        ; preds = %do.end, %sw.bb3, %sw.bb
  %3 = load i64, ptr %retval, align 8
  ret i64 %3
}

; Function Attrs: nounwind sspstrong uwtable
define internal i64 @get_trigger_type(ptr noundef %env, i64 noundef %trigger_index) #0 {
entry:
  %env.addr = alloca ptr, align 8
  %trigger_index.addr = alloca i64, align 8
  store ptr %env, ptr %env.addr, align 8
  store i64 %trigger_index, ptr %trigger_index.addr, align 8
  %0 = load ptr, ptr %env.addr, align 8
  %1 = load ptr, ptr %env.addr, align 8
  %tdata1 = getelementptr inbounds %struct.CPUArchState, ptr %1, i32 0, i32 106
  %2 = load i64, ptr %trigger_index.addr, align 8
  %arrayidx = getelementptr [2 x i64], ptr %tdata1, i64 0, i64 %2
  %3 = load i64, ptr %arrayidx, align 8
  %call = call i64 @extract_trigger_type(ptr noundef %0, i64 noundef %3)
  ret i64 %call
}

; Function Attrs: nounwind sspstrong uwtable
define dso_local zeroext i1 @tdata_available(ptr noundef %env, i32 noundef %tdata_index) #0 {
entry:
  %retval = alloca i1, align 1
  %env.addr = alloca ptr, align 8
  %tdata_index.addr = alloca i32, align 4
  %trigger_type = alloca i32, align 4
  store ptr %env, ptr %env.addr, align 8
  store i32 %tdata_index, ptr %tdata_index.addr, align 4
  %0 = load ptr, ptr %env.addr, align 8
  %1 = load ptr, ptr %env.addr, align 8
  %trigger_cur = getelementptr inbounds %struct.CPUArchState, ptr %1, i32 0, i32 105
  %2 = load i64, ptr %trigger_cur, align 16
  %call = call i64 @get_trigger_type(ptr noundef %0, i64 noundef %2)
  %conv = trunc i64 %call to i32
  store i32 %conv, ptr %trigger_type, align 4
  %3 = load i32, ptr %tdata_index.addr, align 4
  %cmp = icmp sge i32 %3, 3
  %lnot = xor i1 %cmp, true
  %lnot2 = xor i1 %lnot, true
  %lnot.ext = zext i1 %lnot2 to i32
  %conv3 = sext i32 %lnot.ext to i64
  %tobool = icmp ne i64 %conv3, 0
  br i1 %tobool, label %if.then, label %if.end

if.then:                                          ; preds = %entry
  store i1 false, ptr %retval, align 1
  br label %return

if.end:                                           ; preds = %entry
  %4 = load i32, ptr %trigger_type, align 4
  %idxprom = sext i32 %4 to i64
  %arrayidx = getelementptr [16 x [3 x i8]], ptr @tdata_mapping, i64 0, i64 %idxprom
  %5 = load i32, ptr %tdata_index.addr, align 4
  %idxprom4 = sext i32 %5 to i64
  %arrayidx5 = getelementptr [3 x i8], ptr %arrayidx, i64 0, i64 %idxprom4
  %6 = load i8, ptr %arrayidx5, align 1
  %tobool6 = trunc i8 %6 to i1
  store i1 %tobool6, ptr %retval, align 1
  br label %return

return:                                           ; preds = %if.end, %if.then
  %7 = load i1, ptr %retval, align 1
  ret i1 %7
}