; Function Attrs: nounwind sspstrong uwtable
define dso_local zeroext i1 @tdata_available(ptr noundef readonly captures(none) %env, i32 noundef %tdata_index) local_unnamed_addr #0 {
entry:
  %trigger_cur = getelementptr inbounds nuw i8, ptr %env, i64 8352
  %0 = load i64, ptr %trigger_cur, align 16
  %tdata1.i = getelementptr inbounds nuw i8, ptr %env, i64 8360
  %arrayidx.i = getelementptr [2 x i64], ptr %tdata1.i, i64 0, i64 %0
  %1 = load i64, ptr %arrayidx.i, align 8
  %2 = getelementptr i8, ptr %env, i64 5008
  %env.val.i = load i32, ptr %2, align 16
  switch i32 %env.val.i, label %do.body.i.i [
    i32 1, label %sw.bb.i.i
    i32 2, label %sw.bb3.i.i
    i32 3, label %sw.bb3.i.i
  ]

sw.bb.i.i:                                        ; preds = %entry
  %shr.i.i.i = lshr i64 %1, 28
  %conv2.i.i = and i64 %shr.i.i.i, 15
  br label %get_trigger_type.exit

sw.bb3.i.i:                                       ; preds = %entry, %entry
  %shr.i2.i.i = lshr i64 %1, 60
  br label %get_trigger_type.exit

do.body.i.i:                                      ; preds = %entry
  tail call void @g_assertion_message_expr(ptr noundef null, ptr noundef nonnull @.str, i32 noundef 87, ptr noundef nonnull @__func__.extract_trigger_type, ptr noundef null) #7
  unreachable

get_trigger_type.exit:                            ; preds = %sw.bb.i.i, %sw.bb3.i.i
  %retval.0.i.i = phi i64 [ %shr.i2.i.i, %sw.bb3.i.i ], [ %conv2.i.i, %sw.bb.i.i ]
  %cmp = icmp sgt i32 %tdata_index, 2
  br i1 %cmp, label %return, label %if.end

if.end:                                           ; preds = %get_trigger_type.exit
  %idxprom4 = sext i32 %tdata_index to i64
  %arrayidx5 = getelementptr [16 x [3 x i8]], ptr @tdata_mapping, i64 0, i64 %retval.0.i.i, i64 %idxprom4
  %3 = load i8, ptr %arrayidx5, align 1
  %tobool6 = trunc i8 %3 to i1
  br label %return

return:                                           ; preds = %get_trigger_type.exit, %if.end
  %retval.0 = phi i1 [ %tobool6, %if.end ], [ false, %get_trigger_type.exit ]
  ret i1 %retval.0
}